; Function Attrs: nounwind uwtable
define i32 @dt_tag_get_flags(i32 noundef %0) local_unnamed_addr #0 {
  %2 = alloca ptr, align 8
  call void @llvm.lifetime.start.p0(i64 8, ptr nonnull %2) #11
  %3 = load i32, ptr getelementptr inbounds nuw (i8, ptr @darktable, i64 8), align 8, !tbaa !9
  %4 = and i32 %3, 256
  %.not = icmp eq i32 %4, 0
  br i1 %.not, label %6, label %5

5:                                                ; preds = %1
  tail call void (ptr, ...) @dt_print_ext(ptr noundef nonnull @.str, ptr noundef nonnull @.str.1, i32 noundef 1587, ptr noundef nonnull @__FUNCTION__.dt_tag_get_flags, ptr noundef nonnull @.str.58) #11
  br label %6

6:                                                ; preds = %5, %1
  %7 = load ptr, ptr getelementptr inbounds nuw (i8, ptr @darktable, i64 136), align 8, !tbaa !49
  %8 = tail call ptr @dt_database_get(ptr noundef %7) #11
  %9 = call i32 @sqlite3_prepare_v2(ptr noundef %8, ptr noundef nonnull @.str.58, i32 noundef -1, ptr noundef nonnull %2, ptr noundef null) #11
  %.not4 = icmp eq i32 %9, 0
  br i1 %.not4, label %16, label %10

10:                                               ; preds = %6
  %11 = load ptr, ptr @stderr, align 8, !tbaa !50
  %12 = load ptr, ptr getelementptr inbounds nuw (i8, ptr @darktable, i64 136), align 8, !tbaa !49
  %13 = call ptr @dt_database_get(ptr noundef %12) #11
  %14 = call ptr @sqlite3_errmsg(ptr noundef %13) #11
  %15 = call i32 (ptr, ptr, ...) @fprintf(ptr noundef %11, ptr noundef nonnull @.str.3, ptr noundef nonnull @.str.1, i32 noundef 1587, ptr noundef nonnull @__FUNCTION__.dt_tag_get_flags, ptr noundef nonnull @.str.58, ptr noundef %14) #12
  br label %16

16:                                               ; preds = %10, %6
  %17 = load ptr, ptr %2, align 8, !tbaa !52
  %18 = call i32 @sqlite3_bind_int(ptr noundef %17, i32 noundef 1, i32 noundef %0) #11
  %.not5 = icmp eq i32 %18, 0
  br i1 %.not5, label %25, label %19

19:                                               ; preds = %16
  %20 = load ptr, ptr @stderr, align 8, !tbaa !50
  %21 = load ptr, ptr getelementptr inbounds nuw (i8, ptr @darktable, i64 136), align 8, !tbaa !49
  %22 = call ptr @dt_database_get(ptr noundef %21) #11
  %23 = call ptr @sqlite3_errmsg(ptr noundef %22) #11
  %24 = call i32 (ptr, ptr, ...) @fprintf(ptr noundef %20, ptr noundef nonnull @.str.4, ptr noundef nonnull @.str.1, i32 noundef 1588, ptr noundef nonnull @__FUNCTION__.dt_tag_get_flags, ptr noundef %23) #12
  br label %25

25:                                               ; preds = %19, %16
  %26 = load ptr, ptr %2, align 8, !tbaa !52
  %27 = call i32 @sqlite3_step(ptr noundef %26) #11
  %28 = icmp eq i32 %27, 100
  br i1 %28, label %29, label %32

29:                                               ; preds = %25
  %30 = load ptr, ptr %2, align 8, !tbaa !52
  %31 = call i32 @sqlite3_column_int(ptr noundef %30, i32 noundef 0) #11
  br label %32

32:                                               ; preds = %29, %25
  %.0 = phi i32 [ %31, %29 ], [ 0, %25 ]
  %33 = load ptr, ptr %2, align 8, !tbaa !52
  %34 = call i32 @sqlite3_finalize(ptr noundef %33) #11
  call void @llvm.lifetime.end.p0(i64 8, ptr nonnull %2) #11
  ret i32 %.0
}